(lp0
ccopy_reg
_reconstructor
p1
(cmodel
ArticleType
p2
c__builtin__
object
p3
Ntp4
Rp5
(dp6
S't_num'
p7
I0
sS'country'
p8
S'China'
p9
sS'name'
p10
S'Office suplies'
p11
sS'overall_vol'
p12
S'1500'
p13
sbag1
(g2
g3
Ntp14
Rp15
(dp16
g7
I1
sg8
S'Italy'
p17
sg10
S'Fruit'
p18
sg12
S'6000'
p19
sbag1
(g2
g3
Ntp20
Rp21
(dp22
g7
I2
sg8
S'Turkey'
p23
sg10
S'Vegetables'
p24
sg12
S'5200'
p25
sbag1
(g2
g3
Ntp26
Rp27
(dp28
g7
I3
sg8
S'Turkey'
p29
sg10
S'Fabric'
p30
sg12
S'300'
p31
sba.